; Function Attrs: mustprogress uwtable
define dso_local void @_ZNK5vcpkg11PackageSpec3dirB5cxx11Ev(ptr dead_on_unwind noalias writable sret(%"class.std::__cxx11::basic_string") align 8 %0, ptr noundef nonnull align 8 dereferenceable(40) %1) local_unnamed_addr #0 align 2 {
  %3 = alloca %"class.fmt::v10::format_arg_store.59", align 16
  %4 = getelementptr inbounds i8, ptr %1, i64 32
  tail call void @llvm.experimental.noalias.scope.decl(metadata !28)
  %5 = tail call noundef ptr @_ZNKSt7__cxx1112basic_stringIcSt11char_traitsIcESaIcEE4dataEv(ptr noundef nonnull align 8 dereferenceable(32) %1) #17, !noalias !28
  %6 = tail call noundef i64 @_ZNKSt7__cxx1112basic_stringIcSt11char_traitsIcESaIcEE4sizeEv(ptr noundef nonnull align 8 dereferenceable(32) %1) #17, !noalias !28
  %7 = ptrtoint ptr %5 to i64
  %8 = ptrtoint ptr %4 to i64
  store i64 %7, ptr %3, align 16, !alias.scope !28
  %.sroa.232.0..sroa_idx.i = getelementptr inbounds i8, ptr %3, i64 8
  store i64 %6, ptr %.sroa.232.0..sroa_idx.i, align 8, !alias.scope !28
  %9 = getelementptr inbounds i8, ptr %3, i64 16
  store i64 %8, ptr %9, align 16, !alias.scope !28
  %.sroa.234.0..sroa_idx.i = getelementptr inbounds i8, ptr %3, i64 24
  store i64 ptrtoint (ptr @_ZN3fmt3v106detail5valueINS0_20basic_format_contextINS0_8appenderEcEEE17format_custom_argIN5vcpkg7TripletENS0_9formatterIS9_cvEEEEvPvRNS0_26basic_format_parse_contextIcEERS5_ to i64), ptr %.sroa.234.0..sroa_idx.i, align 8, !alias.scope !28
  call void @_ZN3fmt3v107vformatB5cxx11ENS0_17basic_string_viewIcEENS0_17basic_format_argsINS0_20basic_format_contextINS0_8appenderEcEEEE(ptr dead_on_unwind writable sret(%"class.std::__cxx11::basic_string") align 8 %0, ptr nonnull @.str.2, i64 5, i64 253, ptr nonnull %3)
  ret void
}